target datalayout = "e-m:e-p270:32:32-p271:32:32-p272:64:64-i64:64-i128:128-f80:128-n8:16:32:64-S128"
target triple = "x86_64-pc-linux-gnu"

%struct.lua_TValue = type { %union.Value, [1 x i32], i32 }
%union.Value = type { ptr }
%struct.Table = type { i8, i8, i8, i8, i8, i8, i8, i8, i32, %union.anon, ptr, ptr, ptr, ptr }
%union.anon = type { i32 }
%struct.lua_State = type { i8, i8, i8, i8, i8, i8, i8, ptr, ptr, ptr, ptr, ptr, ptr, ptr, ptr, i32, i32, i16, i16, i32, ptr, ptr, ptr, ptr, ptr }
%struct.CallInfo = type { ptr, ptr, ptr, ptr, i32, i32 }
%struct.Closure = type { i8, i8, i8, i8, i8, i8, i8, ptr, ptr, %union.anon.1 }
%union.anon.1 = type { %struct.anon }
%struct.anon = type { ptr, ptr, ptr, [1 x %struct.lua_TValue] }
%struct.global_State = type { %struct.stringtable, ptr, ptr, i8, i8, ptr, ptr, ptr, i64, i64, i32, i32, i32, [40 x ptr], [40 x ptr], ptr, ptr, ptr, [256 x i64], ptr, %struct.UpVal, [11 x ptr], [11 x ptr], [21 x ptr], %struct.lua_TValue, %struct.lua_TValue, i32, ptr, i64, [4 x i64], %struct.lua_Callbacks, %struct.lua_ExecutionCallbacks, [128 x ptr], [128 x ptr], [128 x ptr], %struct.GCStats }
%struct.stringtable = type { ptr, i32, i32 }
%struct.UpVal = type { i8, i8, i8, i8, ptr, %union.anon.3 }
%union.anon.3 = type { %struct.anon.4 }
%struct.anon.4 = type { ptr, ptr, ptr }
%struct.lua_Callbacks = type { ptr, ptr, ptr, ptr, ptr, ptr, ptr, ptr, ptr }
%struct.lua_ExecutionCallbacks = type { ptr, ptr, ptr, ptr, ptr, ptr, ptr }
%struct.GCStats = type { [32 x i32], i32, i32, i64, i64, i64, double, double, double }
%struct.Udata = type { i8, i8, i8, i8, i32, ptr, %union.anon.0 }
%union.anon.0 = type { %union.L_Umaxalign }
%union.L_Umaxalign = type { double }
%struct.GCheader = type { i8, i8, i8 }

; Function Attrs: mustprogress uwtable
define dso_local noundef ptr @_ZN4Luau7CodeGen17executeSETTABLEKSEP9lua_StatePKjP10lua_TValueS6_(ptr noundef %0, ptr noundef %1, ptr noundef %2, ptr noundef %3) #2 {
  %5 = alloca ptr, align 8
  %6 = alloca ptr, align 8
  %7 = alloca ptr, align 8
  %8 = alloca ptr, align 8
  %9 = alloca ptr, align 8
  %10 = alloca ptr, align 8
  %11 = alloca i32, align 4
  %12 = alloca ptr, align 8
  %13 = alloca ptr, align 8
  %14 = alloca i32, align 4
  %15 = alloca ptr, align 8
  %16 = alloca ptr, align 8
  %17 = alloca ptr, align 8
  %18 = alloca i32, align 4
  %19 = alloca ptr, align 8
  %20 = alloca ptr, align 8
  %21 = alloca i32, align 4
  %22 = alloca ptr, align 8
  %23 = alloca ptr, align 8
  %24 = alloca ptr, align 8
  %25 = alloca ptr, align 8
  %26 = alloca ptr, align 8
  %27 = alloca ptr, align 8
  %28 = alloca ptr, align 8
  %29 = alloca ptr, align 8
  %30 = alloca ptr, align 8
  %31 = alloca ptr, align 8
  store ptr %0, ptr %6, align 8
  store ptr %1, ptr %7, align 8
  store ptr %2, ptr %8, align 8
  store ptr %3, ptr %9, align 8
  %32 = load ptr, ptr %6, align 8
  %33 = getelementptr inbounds %struct.lua_State, ptr %32, i32 0, i32 10
  %34 = load ptr, ptr %33, align 8
  %35 = getelementptr inbounds %struct.CallInfo, ptr %34, i32 0, i32 1
  %36 = load ptr, ptr %35, align 8
  %37 = getelementptr inbounds %struct.lua_TValue, ptr %36, i32 0, i32 0
  %38 = load ptr, ptr %37, align 8
  store ptr %38, ptr %10, align 8
  %39 = load ptr, ptr %7, align 8
  %40 = getelementptr inbounds i32, ptr %39, i32 1
  store ptr %40, ptr %7, align 8
  %41 = load i32, ptr %39, align 4
  store i32 %41, ptr %11, align 4
  %42 = load ptr, ptr %8, align 8
  %43 = load i32, ptr %11, align 4
  %44 = lshr i32 %43, 8
  %45 = and i32 %44, 255
  %46 = zext i32 %45 to i64
  %47 = getelementptr inbounds %struct.lua_TValue, ptr %42, i64 %46
  store ptr %47, ptr %12, align 8
  %48 = load ptr, ptr %8, align 8
  %49 = load i32, ptr %11, align 4
  %50 = lshr i32 %49, 16
  %51 = and i32 %50, 255
  %52 = zext i32 %51 to i64
  %53 = getelementptr inbounds %struct.lua_TValue, ptr %48, i64 %52
  store ptr %53, ptr %13, align 8
  %54 = load ptr, ptr %7, align 8
  %55 = getelementptr inbounds i32, ptr %54, i32 1
  store ptr %55, ptr %7, align 8
  %56 = load i32, ptr %54, align 4
  store i32 %56, ptr %14, align 4
  %57 = load ptr, ptr %9, align 8
  %58 = load i32, ptr %14, align 4
  %59 = zext i32 %58 to i64
  %60 = getelementptr inbounds %struct.lua_TValue, ptr %57, i64 %59
  store ptr %60, ptr %15, align 8
  %61 = load ptr, ptr %13, align 8
  %62 = getelementptr inbounds %struct.lua_TValue, ptr %61, i32 0, i32 2
  %63 = load i32, ptr %62, align 4
  %64 = icmp eq i32 %63, 6
  br i1 %64, label %65, label %190

65:                                               ; preds = %4
  %66 = load ptr, ptr %13, align 8
  %67 = getelementptr inbounds %struct.lua_TValue, ptr %66, i32 0, i32 0
  %68 = load ptr, ptr %67, align 8
  store ptr %68, ptr %16, align 8
  %69 = load ptr, ptr %16, align 8
  %70 = getelementptr inbounds %struct.Table, ptr %69, i32 0, i32 10
  %71 = load ptr, ptr %70, align 8
  %72 = icmp eq ptr %71, null
  br i1 %72, label %82, label %73

73:                                               ; preds = %65
  %74 = load ptr, ptr %16, align 8
  %75 = getelementptr inbounds %struct.Table, ptr %74, i32 0, i32 10
  %76 = load ptr, ptr %75, align 8
  %77 = getelementptr inbounds %struct.Table, ptr %76, i32 0, i32 3
  %78 = load i8, ptr %77, align 1
  %79 = zext i8 %78 to i32
  %80 = and i32 %79, 2
  %81 = icmp ne i32 %80, 0
  br i1 %81, label %82, label %152

82:                                               ; preds = %73, %65
  %83 = load ptr, ptr %16, align 8
  %84 = getelementptr inbounds %struct.Table, ptr %83, i32 0, i32 4
  %85 = load i8, ptr %84, align 4
  %86 = icmp ne i8 %85, 0
  br i1 %86, label %152, label %87

87:                                               ; preds = %82
  %88 = load ptr, ptr %7, align 8
  %89 = load ptr, ptr %6, align 8
  %90 = getelementptr inbounds %struct.lua_State, ptr %89, i32 0, i32 10
  %91 = load ptr, ptr %90, align 8
  %92 = getelementptr inbounds %struct.CallInfo, ptr %91, i32 0, i32 3
  store ptr %88, ptr %92, align 8
  %93 = load ptr, ptr %6, align 8
  %94 = load ptr, ptr %16, align 8
  %95 = load ptr, ptr %15, align 8
  %96 = getelementptr inbounds %struct.lua_TValue, ptr %95, i32 0, i32 0
  %97 = load ptr, ptr %96, align 8
  %98 = call noundef ptr @_Z11luaH_setstrP9lua_StateP5TableP7TString(ptr noundef %93, ptr noundef %94, ptr noundef %97)
  store ptr %98, ptr %17, align 8
  %99 = load ptr, ptr %17, align 8
  %100 = load ptr, ptr %16, align 8
  %101 = getelementptr inbounds %struct.Table, ptr %100, i32 0, i32 12
  %102 = load ptr, ptr %101, align 8
  %103 = ptrtoint ptr %99 to i64
  %104 = ptrtoint ptr %102 to i64
  %105 = sub i64 %103, %104
  %106 = sdiv exact i64 %105, 32
  %107 = trunc i64 %106 to i32
  store i32 %107, ptr %18, align 4
  %108 = load i32, ptr %18, align 4
  %109 = trunc i32 %108 to i8
  %110 = zext i8 %109 to i32
  %111 = shl i32 %110, 24
  %112 = load ptr, ptr %7, align 8
  %113 = getelementptr inbounds i32, ptr %112, i64 -2
  %114 = load i32, ptr %113, align 4
  %115 = and i32 16777215, %114
  %116 = or i32 %111, %115
  %117 = load ptr, ptr %7, align 8
  %118 = getelementptr inbounds i32, ptr %117, i64 -2
  store i32 %116, ptr %118, align 4
  %119 = load ptr, ptr %12, align 8
  store ptr %119, ptr %19, align 8
  %120 = load ptr, ptr %17, align 8
  store ptr %120, ptr %20, align 8
  %121 = load ptr, ptr %19, align 8
  %122 = load ptr, ptr %20, align 8
  call void @llvm.memcpy.p0.p0.i64(ptr align 8 %122, ptr align 8 %121, i64 16, i1 false)
  %123 = load ptr, ptr %12, align 8
  %124 = getelementptr inbounds %struct.lua_TValue, ptr %123, i32 0, i32 2
  %125 = load i32, ptr %124, align 4
  %126 = icmp sge i32 %125, 5
  br i1 %126, label %127, label %150

127:                                              ; preds = %87
  %128 = load ptr, ptr %16, align 8
  %129 = getelementptr inbounds %struct.Table, ptr %128, i64 0
  %130 = getelementptr inbounds %struct.GCheader, ptr %129, i32 0, i32 1
  %131 = load i8, ptr %130, align 1
  %132 = zext i8 %131 to i32
  %133 = and i32 %132, 4
  %134 = icmp ne i32 %133, 0
  br i1 %134, label %135, label %150

135:                                              ; preds = %127
  %136 = load ptr, ptr %12, align 8
  %137 = getelementptr inbounds %struct.lua_TValue, ptr %136, i32 0, i32 0
  %138 = load ptr, ptr %137, align 8
  %139 = getelementptr inbounds %struct.GCheader, ptr %138, i32 0, i32 1
  %140 = load i8, ptr %139, align 1
  %141 = zext i8 %140 to i32
  %142 = and i32 %141, 3
  %143 = icmp ne i32 %142, 0
  br i1 %143, label %144, label %150

144:                                              ; preds = %135
  %145 = load ptr, ptr %6, align 8
  %146 = load ptr, ptr %16, align 8
  %147 = load ptr, ptr %12, align 8
  %148 = getelementptr inbounds %struct.lua_TValue, ptr %147, i32 0, i32 0
  %149 = load ptr, ptr %148, align 8
  call void @_Z17luaC_barriertableP9lua_StateP5TableP8GCObject(ptr noundef %145, ptr noundef %146, ptr noundef %149)
  br label %150

150:                                              ; preds = %144, %135, %127, %87
  %151 = load ptr, ptr %7, align 8
  store ptr %151, ptr %5, align 8
  br label %315

152:                                              ; preds = %82, %73
  %153 = load i32, ptr %11, align 4
  %154 = lshr i32 %153, 24
  %155 = and i32 %154, 255
  %156 = load ptr, ptr %16, align 8
  %157 = getelementptr inbounds %struct.Table, ptr %156, i32 0, i32 7
  %158 = load i8, ptr %157, align 1
  %159 = zext i8 %158 to i32
  %160 = and i32 %155, %159
  store i32 %160, ptr %21, align 4
  %161 = load i32, ptr %21, align 4
  %162 = load ptr, ptr %6, align 8
  %163 = getelementptr inbounds %struct.lua_State, ptr %162, i32 0, i32 19
  store i32 %161, ptr %163, align 4
  %164 = load ptr, ptr %7, align 8
  %165 = load ptr, ptr %6, align 8
  %166 = getelementptr inbounds %struct.lua_State, ptr %165, i32 0, i32 10
  %167 = load ptr, ptr %166, align 8
  %168 = getelementptr inbounds %struct.CallInfo, ptr %167, i32 0, i32 3
  store ptr %164, ptr %168, align 8
  %169 = load ptr, ptr %6, align 8
  %170 = load ptr, ptr %13, align 8
  %171 = load ptr, ptr %15, align 8
  %172 = load ptr, ptr %12, align 8
  call void @_Z13luaV_settableP9lua_StatePK10lua_TValuePS1_S4_(ptr noundef %169, ptr noundef %170, ptr noundef %171, ptr noundef %172)
  %173 = load ptr, ptr %6, align 8
  %174 = getelementptr inbounds %struct.lua_State, ptr %173, i32 0, i32 8
  %175 = load ptr, ptr %174, align 8
  store ptr %175, ptr %8, align 8
  %176 = load ptr, ptr %6, align 8
  %177 = getelementptr inbounds %struct.lua_State, ptr %176, i32 0, i32 19
  %178 = load i32, ptr %177, align 4
  %179 = trunc i32 %178 to i8
  %180 = zext i8 %179 to i32
  %181 = shl i32 %180, 24
  %182 = load ptr, ptr %7, align 8
  %183 = getelementptr inbounds i32, ptr %182, i64 -2
  %184 = load i32, ptr %183, align 4
  %185 = and i32 16777215, %184
  %186 = or i32 %181, %185
  %187 = load ptr, ptr %7, align 8
  %188 = getelementptr inbounds i32, ptr %187, i64 -2
  store i32 %186, ptr %188, align 4
  %189 = load ptr, ptr %7, align 8
  store ptr %189, ptr %5, align 8
  br label %315

190:                                              ; preds = %4
  store ptr null, ptr %22, align 8
  %191 = load ptr, ptr %13, align 8
  %192 = getelementptr inbounds %struct.lua_TValue, ptr %191, i32 0, i32 2
  %193 = load i32, ptr %192, align 4
  %194 = icmp eq i32 %193, 8
  br i1 %194, label %195, label %301

195:                                              ; preds = %190
  %196 = load ptr, ptr %13, align 8
  %197 = getelementptr inbounds %struct.lua_TValue, ptr %196, i32 0, i32 0
  %198 = load ptr, ptr %197, align 8
  %199 = getelementptr inbounds %struct.Udata, ptr %198, i32 0, i32 5
  %200 = load ptr, ptr %199, align 8
  %201 = icmp eq ptr %200, null
  br i1 %201, label %202, label %203

202:                                              ; preds = %195
  br label %230

203:                                              ; preds = %195
  %204 = load ptr, ptr %13, align 8
  %205 = getelementptr inbounds %struct.lua_TValue, ptr %204, i32 0, i32 0
  %206 = load ptr, ptr %205, align 8
  %207 = getelementptr inbounds %struct.Udata, ptr %206, i32 0, i32 5
  %208 = load ptr, ptr %207, align 8
  %209 = getelementptr inbounds %struct.Table, ptr %208, i32 0, i32 3
  %210 = load i8, ptr %209, align 1
  %211 = zext i8 %210 to i32
  %212 = and i32 %211, 2
  %213 = icmp ne i32 %212, 0
  br i1 %213, label %214, label %215

214:                                              ; preds = %203
  br label %228

215:                                              ; preds = %203
  %216 = load ptr, ptr %13, align 8
  %217 = getelementptr inbounds %struct.lua_TValue, ptr %216, i32 0, i32 0
  %218 = load ptr, ptr %217, align 8
  %219 = getelementptr inbounds %struct.Udata, ptr %218, i32 0, i32 5
  %220 = load ptr, ptr %219, align 8
  %221 = load ptr, ptr %6, align 8
  %222 = getelementptr inbounds %struct.lua_State, ptr %221, i32 0, i32 9
  %223 = load ptr, ptr %222, align 8
  %224 = getelementptr inbounds %struct.global_State, ptr %223, i32 0, i32 23
  %225 = getelementptr inbounds [21 x ptr], ptr %224, i64 0, i64 1
  %226 = load ptr, ptr %225, align 8
  %227 = call noundef ptr @_Z10luaT_gettmP5Table3TMSP7TString(ptr noundef %220, i32 noundef 1, ptr noundef %226)
  br label %228

228:                                              ; preds = %215, %214
  %229 = phi ptr [ null, %214 ], [ %227, %215 ]
  br label %230

230:                                              ; preds = %228, %202
  %231 = phi ptr [ null, %202 ], [ %229, %228 ]
  store ptr %231, ptr %22, align 8
  %232 = icmp ne ptr %231, null
  br i1 %232, label %233, label %301

233:                                              ; preds = %230
  %234 = load ptr, ptr %22, align 8
  %235 = getelementptr inbounds %struct.lua_TValue, ptr %234, i32 0, i32 2
  %236 = load i32, ptr %235, align 4
  %237 = icmp eq i32 %236, 7
  br i1 %237, label %238, label %301

238:                                              ; preds = %233
  %239 = load ptr, ptr %22, align 8
  %240 = getelementptr inbounds %struct.lua_TValue, ptr %239, i32 0, i32 0
  %241 = load ptr, ptr %240, align 8
  %242 = getelementptr inbounds %struct.Closure, ptr %241, i32 0, i32 3
  %243 = load i8, ptr %242, align 1
  %244 = icmp ne i8 %243, 0
  br i1 %244, label %245, label %301

245:                                              ; preds = %238
  %246 = load ptr, ptr %6, align 8
  %247 = getelementptr inbounds %struct.lua_State, ptr %246, i32 0, i32 7
  %248 = load ptr, ptr %247, align 8
  store ptr %248, ptr %23, align 8
  %249 = load ptr, ptr %22, align 8
  store ptr %249, ptr %24, align 8
  %250 = load ptr, ptr %23, align 8
  %251 = getelementptr inbounds %struct.lua_TValue, ptr %250, i64 0
  store ptr %251, ptr %25, align 8
  %252 = load ptr, ptr %24, align 8
  %253 = load ptr, ptr %25, align 8
  call void @llvm.memcpy.p0.p0.i64(ptr align 8 %253, ptr align 8 %252, i64 16, i1 false)
  %254 = load ptr, ptr %13, align 8
  store ptr %254, ptr %26, align 8
  %255 = load ptr, ptr %23, align 8
  %256 = getelementptr inbounds %struct.lua_TValue, ptr %255, i64 1
  store ptr %256, ptr %27, align 8
  %257 = load ptr, ptr %26, align 8
  %258 = load ptr, ptr %27, align 8
  call void @llvm.memcpy.p0.p0.i64(ptr align 8 %258, ptr align 8 %257, i64 16, i1 false)
  %259 = load ptr, ptr %15, align 8
  store ptr %259, ptr %28, align 8
  %260 = load ptr, ptr %23, align 8
  %261 = getelementptr inbounds %struct.lua_TValue, ptr %260, i64 2
  store ptr %261, ptr %29, align 8
  %262 = load ptr, ptr %28, align 8
  %263 = load ptr, ptr %29, align 8
  call void @llvm.memcpy.p0.p0.i64(ptr align 8 %263, ptr align 8 %262, i64 16, i1 false)
  %264 = load ptr, ptr %12, align 8
  store ptr %264, ptr %30, align 8
  %265 = load ptr, ptr %23, align 8
  %266 = getelementptr inbounds %struct.lua_TValue, ptr %265, i64 3
  store ptr %266, ptr %31, align 8
  %267 = load ptr, ptr %30, align 8
  %268 = load ptr, ptr %31, align 8
  call void @llvm.memcpy.p0.p0.i64(ptr align 8 %268, ptr align 8 %267, i64 16, i1 false)
  %269 = load ptr, ptr %23, align 8
  %270 = getelementptr inbounds %struct.lua_TValue, ptr %269, i64 4
  %271 = load ptr, ptr %6, align 8
  %272 = getelementptr inbounds %struct.lua_State, ptr %271, i32 0, i32 7
  store ptr %270, ptr %272, align 8
  %273 = load i32, ptr %11, align 4
  %274 = lshr i32 %273, 24
  %275 = and i32 %274, 255
  %276 = load ptr, ptr %6, align 8
  %277 = getelementptr inbounds %struct.lua_State, ptr %276, i32 0, i32 19
  store i32 %275, ptr %277, align 4
  %278 = load ptr, ptr %7, align 8
  %279 = load ptr, ptr %6, align 8
  %280 = getelementptr inbounds %struct.lua_State, ptr %279, i32 0, i32 10
  %281 = load ptr, ptr %280, align 8
  %282 = getelementptr inbounds %struct.CallInfo, ptr %281, i32 0, i32 3
  store ptr %278, ptr %282, align 8
  %283 = load ptr, ptr %6, align 8
  call void @_Z11luaV_callTMP9lua_Stateii(ptr noundef %283, i32 noundef 3, i32 noundef -1)
  %284 = load ptr, ptr %6, align 8
  %285 = getelementptr inbounds %struct.lua_State, ptr %284, i32 0, i32 8
  %286 = load ptr, ptr %285, align 8
  store ptr %286, ptr %8, align 8
  %287 = load ptr, ptr %6, align 8
  %288 = getelementptr inbounds %struct.lua_State, ptr %287, i32 0, i32 19
  %289 = load i32, ptr %288, align 4
  %290 = trunc i32 %289 to i8
  %291 = zext i8 %290 to i32
  %292 = shl i32 %291, 24
  %293 = load ptr, ptr %7, align 8
  %294 = getelementptr inbounds i32, ptr %293, i64 -2
  %295 = load i32, ptr %294, align 4
  %296 = and i32 16777215, %295
  %297 = or i32 %292, %296
  %298 = load ptr, ptr %7, align 8
  %299 = getelementptr inbounds i32, ptr %298, i64 -2
  store i32 %297, ptr %299, align 4
  %300 = load ptr, ptr %7, align 8
  store ptr %300, ptr %5, align 8
  br label %315

301:                                              ; preds = %238, %233, %230, %190
  %302 = load ptr, ptr %7, align 8
  %303 = load ptr, ptr %6, align 8
  %304 = getelementptr inbounds %struct.lua_State, ptr %303, i32 0, i32 10
  %305 = load ptr, ptr %304, align 8
  %306 = getelementptr inbounds %struct.CallInfo, ptr %305, i32 0, i32 3
  store ptr %302, ptr %306, align 8
  %307 = load ptr, ptr %6, align 8
  %308 = load ptr, ptr %13, align 8
  %309 = load ptr, ptr %15, align 8
  %310 = load ptr, ptr %12, align 8
  call void @_Z13luaV_settableP9lua_StatePK10lua_TValuePS1_S4_(ptr noundef %307, ptr noundef %308, ptr noundef %309, ptr noundef %310)
  %311 = load ptr, ptr %6, align 8
  %312 = getelementptr inbounds %struct.lua_State, ptr %311, i32 0, i32 8
  %313 = load ptr, ptr %312, align 8
  store ptr %313, ptr %8, align 8
  %314 = load ptr, ptr %7, align 8
  store ptr %314, ptr %5, align 8
  br label %315

315:                                              ; preds = %301, %245, %152, %150
  %316 = load ptr, ptr %5, align 8
  ret ptr %316
}