; Function Attrs: mustprogress uwtable
define dso_local noundef nonnull ptr @_ZN4Luau7CodeGen17executeSETTABLEKSEP9lua_StatePKjP10lua_TValueS6_(ptr noundef %0, ptr noundef %1, ptr noundef %2, ptr noundef %3) local_unnamed_addr #2 {
  %5 = getelementptr inbounds i8, ptr %0, i64 32
  %6 = getelementptr inbounds i8, ptr %1, i64 4
  %7 = load i32, ptr %1, align 4
  %8 = lshr i32 %7, 8
  %9 = and i32 %8, 255
  %10 = zext nneg i32 %9 to i64
  %11 = getelementptr inbounds %struct.lua_TValue, ptr %2, i64 %10
  %12 = lshr i32 %7, 16
  %13 = and i32 %12, 255
  %14 = zext nneg i32 %13 to i64
  %15 = getelementptr inbounds %struct.lua_TValue, ptr %2, i64 %14
  %16 = getelementptr inbounds i8, ptr %1, i64 8
  %17 = load i32, ptr %6, align 4
  %18 = zext i32 %17 to i64
  %19 = getelementptr inbounds %struct.lua_TValue, ptr %3, i64 %18
  %20 = getelementptr inbounds i8, ptr %15, i64 12
  %21 = load i32, ptr %20, align 4
  switch i32 %21, label %.thread [
    i32 6, label %22
    i32 8, label %77
  ]

22:                                               ; preds = %4
  %23 = load ptr, ptr %15, align 8
  %24 = getelementptr inbounds i8, ptr %23, i64 16
  %25 = load ptr, ptr %24, align 8
  %26 = icmp eq ptr %25, null
  br i1 %26, label %31, label %27

27:                                               ; preds = %22
  %28 = getelementptr inbounds i8, ptr %25, i64 3
  %29 = load i8, ptr %28, align 1
  %30 = and i8 %29, 2
  %.not99 = icmp eq i8 %30, 0
  br i1 %.not99, label %63, label %31

31:                                               ; preds = %27, %22
  %32 = getelementptr inbounds i8, ptr %23, i64 4
  %33 = load i8, ptr %32, align 4
  %.not100 = icmp eq i8 %33, 0
  br i1 %.not100, label %34, label %63

34:                                               ; preds = %31
  %35 = load ptr, ptr %5, align 8
  %36 = getelementptr inbounds i8, ptr %35, i64 24
  store ptr %16, ptr %36, align 8
  %37 = load ptr, ptr %19, align 8
  %38 = tail call noundef ptr @_Z11luaH_setstrP9lua_StateP5TableP7TString(ptr noundef %0, ptr noundef nonnull %23, ptr noundef %37)
  %39 = getelementptr inbounds i8, ptr %23, i64 32
  %40 = load ptr, ptr %39, align 8
  %41 = ptrtoint ptr %38 to i64
  %42 = ptrtoint ptr %40 to i64
  %43 = sub i64 %41, %42
  %44 = trunc i64 %43 to i32
  %45 = shl i32 %44, 19
  %46 = and i32 %45, -16777216
  %47 = load i32, ptr %1, align 4
  %48 = and i32 %47, 16777215
  %49 = or disjoint i32 %46, %48
  store i32 %49, ptr %1, align 4
  tail call void @llvm.memcpy.p0.p0.i64(ptr noundef nonnull align 8 dereferenceable(16) %38, ptr noundef nonnull align 8 dereferenceable(16) %11, i64 16, i1 false)
  %50 = getelementptr inbounds i8, ptr %11, i64 12
  %51 = load i32, ptr %50, align 4
  %52 = icmp sgt i32 %51, 4
  br i1 %52, label %53, label %118

53:                                               ; preds = %34
  %54 = getelementptr inbounds i8, ptr %23, i64 1
  %55 = load i8, ptr %54, align 1
  %56 = and i8 %55, 4
  %.not101 = icmp eq i8 %56, 0
  br i1 %.not101, label %118, label %57

57:                                               ; preds = %53
  %58 = load ptr, ptr %11, align 8
  %59 = getelementptr inbounds i8, ptr %58, i64 1
  %60 = load i8, ptr %59, align 1
  %61 = and i8 %60, 3
  %.not102 = icmp eq i8 %61, 0
  br i1 %.not102, label %118, label %62

62:                                               ; preds = %57
  tail call void @_Z17luaC_barriertableP9lua_StateP5TableP8GCObject(ptr noundef nonnull %0, ptr noundef nonnull %23, ptr noundef nonnull %58)
  br label %118

63:                                               ; preds = %31, %27
  %64 = lshr i32 %7, 24
  %65 = getelementptr inbounds i8, ptr %23, i64 7
  %66 = load i8, ptr %65, align 1
  %67 = zext i8 %66 to i32
  %68 = and i32 %64, %67
  %69 = getelementptr inbounds i8, ptr %0, i64 84
  store i32 %68, ptr %69, align 4
  %70 = load ptr, ptr %5, align 8
  %71 = getelementptr inbounds i8, ptr %70, i64 24
  store ptr %16, ptr %71, align 8
  tail call void @_Z13luaV_settableP9lua_StatePK10lua_TValuePS1_S4_(ptr noundef %0, ptr noundef nonnull %15, ptr noundef %19, ptr noundef nonnull %11)
  %72 = load i32, ptr %69, align 4
  %73 = shl i32 %72, 24
  %74 = load i32, ptr %1, align 4
  %75 = and i32 %74, 16777215
  %76 = or disjoint i32 %75, %73
  store i32 %76, ptr %1, align 4
  br label %118

77:                                               ; preds = %4
  %78 = load ptr, ptr %15, align 8
  %79 = getelementptr inbounds i8, ptr %78, i64 8
  %80 = load ptr, ptr %79, align 8
  %81 = icmp eq ptr %80, null
  br i1 %81, label %.thread, label %82

82:                                               ; preds = %77
  %83 = getelementptr inbounds i8, ptr %80, i64 3
  %84 = load i8, ptr %83, align 1
  %85 = and i8 %84, 2
  %.not = icmp eq i8 %85, 0
  br i1 %.not, label %86, label %.thread

86:                                               ; preds = %82
  %87 = getelementptr inbounds i8, ptr %0, i64 24
  %88 = load ptr, ptr %87, align 8
  %89 = getelementptr inbounds i8, ptr %88, i64 3040
  %90 = load ptr, ptr %89, align 8
  %91 = tail call noundef ptr @_Z10luaT_gettmP5Table3TMSP7TString(ptr noundef nonnull %80, i32 noundef 1, ptr noundef %90)
  %.not97 = icmp eq ptr %91, null
  br i1 %.not97, label %.thread, label %92

92:                                               ; preds = %86
  %93 = getelementptr inbounds i8, ptr %91, i64 12
  %94 = load i32, ptr %93, align 4
  %95 = icmp eq i32 %94, 7
  br i1 %95, label %96, label %.thread

96:                                               ; preds = %92
  %97 = load ptr, ptr %91, align 8
  %98 = getelementptr inbounds i8, ptr %97, i64 3
  %99 = load i8, ptr %98, align 1
  %.not98 = icmp eq i8 %99, 0
  br i1 %.not98, label %.thread, label %100

100:                                              ; preds = %96
  %101 = getelementptr inbounds i8, ptr %0, i64 8
  %102 = load ptr, ptr %101, align 8
  tail call void @llvm.memcpy.p0.p0.i64(ptr noundef nonnull align 8 dereferenceable(16) %102, ptr noundef nonnull align 8 dereferenceable(16) %91, i64 16, i1 false)
  %103 = getelementptr inbounds i8, ptr %102, i64 16
  tail call void @llvm.memcpy.p0.p0.i64(ptr noundef nonnull align 8 dereferenceable(16) %103, ptr noundef nonnull align 8 dereferenceable(16) %15, i64 16, i1 false)
  %104 = getelementptr inbounds i8, ptr %102, i64 32
  tail call void @llvm.memcpy.p0.p0.i64(ptr noundef nonnull align 8 dereferenceable(16) %104, ptr noundef nonnull align 8 dereferenceable(16) %19, i64 16, i1 false)
  %105 = getelementptr inbounds i8, ptr %102, i64 48
  tail call void @llvm.memcpy.p0.p0.i64(ptr noundef nonnull align 8 dereferenceable(16) %105, ptr noundef nonnull align 8 dereferenceable(16) %11, i64 16, i1 false)
  %106 = getelementptr inbounds i8, ptr %102, i64 64
  store ptr %106, ptr %101, align 8
  %107 = lshr i32 %7, 24
  %108 = getelementptr inbounds i8, ptr %0, i64 84
  store i32 %107, ptr %108, align 4
  %109 = load ptr, ptr %5, align 8
  %110 = getelementptr inbounds i8, ptr %109, i64 24
  store ptr %16, ptr %110, align 8
  tail call void @_Z11luaV_callTMP9lua_Stateii(ptr noundef nonnull %0, i32 noundef 3, i32 noundef -1)
  %111 = load i32, ptr %108, align 4
  %112 = shl i32 %111, 24
  %113 = load i32, ptr %1, align 4
  %114 = and i32 %113, 16777215
  %115 = or disjoint i32 %114, %112
  store i32 %115, ptr %1, align 4
  br label %118

.thread:                                          ; preds = %82, %77, %4, %96, %92, %86
  %116 = load ptr, ptr %5, align 8
  %117 = getelementptr inbounds i8, ptr %116, i64 24
  store ptr %16, ptr %117, align 8
  tail call void @_Z13luaV_settableP9lua_StatePK10lua_TValuePS1_S4_(ptr noundef %0, ptr noundef nonnull %15, ptr noundef %19, ptr noundef nonnull %11)
  br label %118

118:                                              ; preds = %34, %53, %57, %62, %.thread, %100, %63
  ret ptr %16
}